; Function Attrs: mustprogress uwtable
define hidden noundef zeroext i1 @_ZN4lean9has_paramERKNS_8list_refINS_5levelEEE(ptr noundef nonnull readonly align 8 captures(none) dereferenceable(8) %0) local_unnamed_addr #0 {
  %2 = load ptr, ptr %0, align 8, !tbaa !3
  %3 = ptrtoint ptr %2 to i64
  %4 = and i64 %3, 1
  %.not56.i = icmp eq i64 %4, 0
  br i1 %.not56.i, label %.lr.ph.i, label %_ZN4lean16levels_has_paramEP11lean_object.exit

.lr.ph.i:                                         ; preds = %1, %8
  %.07.i = phi ptr [ %10, %8 ], [ %2, %1 ]
  %5 = getelementptr inbounds nuw i8, ptr %.07.i, i64 8
  %6 = load ptr, ptr %5, align 8, !tbaa !41
  %7 = tail call zeroext i8 @lean_level_has_param(ptr noundef %6)
  %.not.not.i.not.not = icmp ne i8 %7, 0
  br i1 %.not.not.i.not.not, label %_ZN4lean16levels_has_paramEP11lean_object.exit, label %8

8:                                                ; preds = %.lr.ph.i
  %9 = getelementptr inbounds nuw i8, ptr %.07.i, i64 16
  %10 = load ptr, ptr %9, align 8, !tbaa !41
  %11 = ptrtoint ptr %10 to i64
  %12 = and i64 %11, 1
  %.not5.i = icmp eq i64 %12, 0
  br i1 %.not5.i, label %.lr.ph.i, label %_ZN4lean16levels_has_paramEP11lean_object.exit, !llvm.loop !42

_ZN4lean16levels_has_paramEP11lean_object.exit:   ; preds = %.lr.ph.i, %8, %1
  %.not5.lcssa.i = phi i1 [ false, %1 ], [ %.not.not.i.not.not, %8 ], [ %.not.not.i.not.not, %.lr.ph.i ]
  ret i1 %.not5.lcssa.i
}